; Function Attrs: mustprogress nofree norecurse nosync nounwind willreturn memory(read, argmem: readwrite, inaccessiblemem: none) uwtable
define dso_local void @bitmap_writer_set_checksum(ptr noundef writeonly captures(none) %0, ptr noundef readonly captures(none) %1) local_unnamed_addr #11 {
  %3 = getelementptr inbounds nuw i8, ptr %0, i64 132
  %4 = load ptr, ptr @the_repository, align 8, !tbaa !71
  %5 = getelementptr inbounds nuw i8, ptr %4, i64 400
  %6 = load ptr, ptr %5, align 8, !tbaa !127
  %7 = getelementptr i8, ptr %6, i64 16
  %.val = load i64, ptr %7, align 8, !tbaa !145
  tail call void @llvm.memcpy.p0.p0.i64(ptr nonnull align 1 %3, ptr readonly align 1 %1, i64 %.val, i1 false)
  ret void
}